target datalayout = "e-m:e-p270:32:32-p271:32:32-p272:64:64-i64:64-i128:128-f80:128-n8:16:32:64-S128"
target triple = "x86_64-pc-linux-gnu"

%struct.Table = type { i32, [12 x i32], [12 x [128 x i32]] }

; Function Attrs: alwaysinline nounwind willreturn memory(none) uwtable
define internal i32 @av_clip_c(i32 noundef %0, i32 noundef %1, i32 noundef %2) #8 {
  %4 = alloca i32, align 4
  %5 = alloca i32, align 4
  %6 = alloca i32, align 4
  %7 = alloca i32, align 4
  store i32 %0, ptr %5, align 4, !tbaa !34
  store i32 %1, ptr %6, align 4, !tbaa !34
  store i32 %2, ptr %7, align 4, !tbaa !34
  %8 = load i32, ptr %5, align 4, !tbaa !34
  %9 = load i32, ptr %6, align 4, !tbaa !34
  %10 = icmp slt i32 %8, %9
  br i1 %10, label %11, label %13

11:                                               ; preds = %3
  %12 = load i32, ptr %6, align 4, !tbaa !34
  store i32 %12, ptr %4, align 4
  br label %21

13:                                               ; preds = %3
  %14 = load i32, ptr %5, align 4, !tbaa !34
  %15 = load i32, ptr %7, align 4, !tbaa !34
  %16 = icmp sgt i32 %14, %15
  br i1 %16, label %17, label %19

17:                                               ; preds = %13
  %18 = load i32, ptr %7, align 4, !tbaa !34
  store i32 %18, ptr %4, align 4
  br label %21

19:                                               ; preds = %13
  %20 = load i32, ptr %5, align 4, !tbaa !34
  store i32 %20, ptr %4, align 4
  br label %21

21:                                               ; preds = %19, %17, %11
  %22 = load i32, ptr %4, align 4
  ret i32 %22
}

; Function Attrs: nounwind uwtable
define internal i32 @build_filter(ptr noundef %0, ptr noundef %1) #1 {
  %3 = alloca i32, align 4
  %4 = alloca ptr, align 8
  %5 = alloca ptr, align 8
  %6 = alloca i32, align 4
  %7 = alloca i32, align 4
  %8 = alloca i32, align 4
  %9 = alloca i32, align 4
  %10 = alloca i32, align 4
  %11 = alloca i32, align 4
  %12 = alloca i64, align 8
  %13 = alloca i32, align 4
  store ptr %0, ptr %4, align 8, !tbaa !64
  store ptr %1, ptr %5, align 8, !tbaa !74
  call void @llvm.lifetime.start.p0(i64 4, ptr %6) #9
  call void @llvm.lifetime.start.p0(i64 4, ptr %7) #9
  call void @llvm.lifetime.start.p0(i64 4, ptr %8) #9
  call void @llvm.lifetime.start.p0(i64 4, ptr %9) #9
  store i32 0, ptr %6, align 4, !tbaa !34
  br label %14

14:                                               ; preds = %107, %2
  %15 = load i32, ptr %6, align 4, !tbaa !34
  %16 = load ptr, ptr %5, align 8, !tbaa !74
  %17 = getelementptr inbounds nuw %struct.Table, ptr %16, i32 0, i32 0
  %18 = load i32, ptr %17, align 4, !tbaa !76
  %19 = icmp ult i32 %15, %18
  br i1 %19, label %20, label %110

20:                                               ; preds = %14
  call void @llvm.lifetime.start.p0(i64 4, ptr %10) #9
  %21 = load ptr, ptr %5, align 8, !tbaa !74
  %22 = getelementptr inbounds nuw %struct.Table, ptr %21, i32 0, i32 1
  %23 = load i32, ptr %6, align 4, !tbaa !34
  %24 = sext i32 %23 to i64
  %25 = getelementptr inbounds [12 x i32], ptr %22, i64 0, i64 %24
  %26 = load i32, ptr %25, align 4, !tbaa !34
  store i32 %26, ptr %10, align 4, !tbaa !34
  store i32 0, ptr %7, align 4, !tbaa !34
  br label %27

27:                                               ; preds = %100, %20
  %28 = load i32, ptr %7, align 4, !tbaa !34
  %29 = icmp slt i32 %28, 16
  br i1 %29, label %30, label %103

30:                                               ; preds = %27
  call void @llvm.lifetime.start.p0(i64 4, ptr %11) #9
  %31 = load i32, ptr %10, align 4, !tbaa !34
  %32 = load i32, ptr %7, align 4, !tbaa !34
  %33 = mul nsw i32 %32, 8
  %34 = sub nsw i32 %31, %33
  %35 = call i32 @av_clip_c(i32 noundef %34, i32 noundef 0, i32 noundef 8) #10
  store i32 %35, ptr %11, align 4, !tbaa !34
  store i32 0, ptr %8, align 4, !tbaa !34
  br label %36

36:                                               ; preds = %93, %30
  %37 = load i32, ptr %8, align 4, !tbaa !34
  %38 = icmp slt i32 %37, 256
  br i1 %38, label %39, label %96

39:                                               ; preds = %36
  call void @llvm.lifetime.start.p0(i64 8, ptr %12) #9
  store i64 0, ptr %12, align 8, !tbaa !83
  store i32 0, ptr %9, align 4, !tbaa !34
  br label %40

40:                                               ; preds = %67, %39
  %41 = load i32, ptr %9, align 4, !tbaa !34
  %42 = load i32, ptr %11, align 4, !tbaa !34
  %43 = icmp slt i32 %41, %42
  br i1 %43, label %44, label %70

44:                                               ; preds = %40
  %45 = load i32, ptr %8, align 4, !tbaa !34
  %46 = load i32, ptr %9, align 4, !tbaa !34
  %47 = ashr i32 %45, %46
  %48 = and i32 %47, 1
  %49 = mul nsw i32 %48, 2
  %50 = sub nsw i32 %49, 1
  %51 = load ptr, ptr %5, align 8, !tbaa !74
  %52 = getelementptr inbounds nuw %struct.Table, ptr %51, i32 0, i32 2
  %53 = load i32, ptr %6, align 4, !tbaa !34
  %54 = sext i32 %53 to i64
  %55 = getelementptr inbounds [12 x [128 x i32]], ptr %52, i64 0, i64 %54
  %56 = load i32, ptr %7, align 4, !tbaa !34
  %57 = mul nsw i32 %56, 8
  %58 = load i32, ptr %9, align 4, !tbaa !34
  %59 = add nsw i32 %57, %58
  %60 = sext i32 %59 to i64
  %61 = getelementptr inbounds [128 x i32], ptr %55, i64 0, i64 %60
  %62 = load i32, ptr %61, align 4, !tbaa !34
  %63 = mul nsw i32 %50, %62
  %64 = sext i32 %63 to i64
  %65 = load i64, ptr %12, align 8, !tbaa !83
  %66 = add nsw i64 %65, %64
  store i64 %66, ptr %12, align 8, !tbaa !83
  br label %67

67:                                               ; preds = %44
  %68 = load i32, ptr %9, align 4, !tbaa !34
  %69 = add nsw i32 %68, 1
  store i32 %69, ptr %9, align 4, !tbaa !34
  br label %40, !llvm.loop !84

70:                                               ; preds = %40
  %71 = load i64, ptr %12, align 8, !tbaa !83
  %72 = trunc i64 %71 to i16
  %73 = sext i16 %72 to i64
  %74 = load i64, ptr %12, align 8, !tbaa !83
  %75 = icmp ne i64 %73, %74
  br i1 %75, label %76, label %77

76:                                               ; preds = %70
  store i32 -1094995529, ptr %3, align 4
  store i32 1, ptr %13, align 4
  br label %90

77:                                               ; preds = %70
  %78 = load i64, ptr %12, align 8, !tbaa !83
  %79 = trunc i64 %78 to i16
  %80 = load ptr, ptr %4, align 8, !tbaa !64
  %81 = load i32, ptr %6, align 4, !tbaa !34
  %82 = sext i32 %81 to i64
  %83 = getelementptr inbounds [16 x [256 x i16]], ptr %80, i64 %82
  %84 = load i32, ptr %7, align 4, !tbaa !34
  %85 = sext i32 %84 to i64
  %86 = getelementptr inbounds [16 x [256 x i16]], ptr %83, i64 0, i64 %85
  %87 = load i32, ptr %8, align 4, !tbaa !34
  %88 = sext i32 %87 to i64
  %89 = getelementptr inbounds [256 x i16], ptr %86, i64 0, i64 %88
  store i16 %79, ptr %89, align 2, !tbaa !66
  store i32 0, ptr %13, align 4
  br label %90

90:                                               ; preds = %77, %76
  call void @llvm.lifetime.end.p0(i64 8, ptr %12) #9
  %91 = load i32, ptr %13, align 4
  switch i32 %91, label %97 [
    i32 0, label %92
  ]

92:                                               ; preds = %90
  br label %93

93:                                               ; preds = %92
  %94 = load i32, ptr %8, align 4, !tbaa !34
  %95 = add nsw i32 %94, 1
  store i32 %95, ptr %8, align 4, !tbaa !34
  br label %36, !llvm.loop !85

96:                                               ; preds = %36
  store i32 0, ptr %13, align 4
  br label %97

97:                                               ; preds = %96, %90
  call void @llvm.lifetime.end.p0(i64 4, ptr %11) #9
  %98 = load i32, ptr %13, align 4
  switch i32 %98, label %104 [
    i32 0, label %99
  ]

99:                                               ; preds = %97
  br label %100

100:                                              ; preds = %99
  %101 = load i32, ptr %7, align 4, !tbaa !34
  %102 = add nsw i32 %101, 1
  store i32 %102, ptr %7, align 4, !tbaa !34
  br label %27, !llvm.loop !86

103:                                              ; preds = %27
  store i32 0, ptr %13, align 4
  br label %104

104:                                              ; preds = %103, %97
  call void @llvm.lifetime.end.p0(i64 4, ptr %10) #9
  %105 = load i32, ptr %13, align 4
  switch i32 %105, label %111 [
    i32 0, label %106
  ]

106:                                              ; preds = %104
  br label %107

107:                                              ; preds = %106
  %108 = load i32, ptr %6, align 4, !tbaa !34
  %109 = add nsw i32 %108, 1
  store i32 %109, ptr %6, align 4, !tbaa !34
  br label %14, !llvm.loop !87

110:                                              ; preds = %14
  store i32 0, ptr %3, align 4
  store i32 1, ptr %13, align 4
  br label %111

111:                                              ; preds = %110, %104
  call void @llvm.lifetime.end.p0(i64 4, ptr %9) #9
  call void @llvm.lifetime.end.p0(i64 4, ptr %8) #9
  call void @llvm.lifetime.end.p0(i64 4, ptr %7) #9
  call void @llvm.lifetime.end.p0(i64 4, ptr %6) #9
  %112 = load i32, ptr %3, align 4
  ret i32 %112
}