; Function Attrs: nofree norecurse nosync nounwind memory(argmem: readwrite) uwtable
define internal fastcc range(i32 -1094995529, 1) i32 @build_filter(ptr noundef writeonly captures(none) %0, ptr noundef readonly captures(none) %1) unnamed_addr #7 {
.split50:
  %2 = load i32, ptr %1, align 4, !tbaa !48
  %.not = icmp eq i32 %2, 0
  br i1 %.not, label %.critedge, label %.split48.lr.ph

.split48.lr.ph:                                   ; preds = %.split50
  %3 = getelementptr inbounds nuw i8, ptr %1, i64 4
  %4 = getelementptr inbounds nuw i8, ptr %1, i64 52
  %wide.trip.count = zext i32 %2 to i64
  br label %.split48

.split48:                                         ; preds = %.split48.lr.ph, %.critedge43
  %indvar = phi i64 [ 0, %.split48.lr.ph ], [ %indvar.next, %.critedge43 ]
  %5 = shl nuw nsw i64 %indvar, 13
  %6 = getelementptr inbounds nuw [12 x i32], ptr %3, i64 0, i64 %indvar
  %7 = load i32, ptr %6, align 4, !tbaa !50
  %8 = sext i32 %7 to i64
  %9 = getelementptr i8, ptr %0, i64 %5
  br label %10

10:                                               ; preds = %.split48, %.critedge41
  %indvar59 = phi i64 [ 0, %.split48 ], [ %indvar.next60, %.critedge41 ]
  %11 = shl nuw nsw i64 %indvar59, 3
  %12 = sub nsw i64 %8, %11
  %.not52 = icmp slt i64 %12, 1
  br i1 %.not52, label %.preheader.preheader, label %.preheader.us.preheader

.preheader.us.preheader:                          ; preds = %10
  %13 = trunc nsw i64 %12 to i32
  %14 = tail call i32 @llvm.smax.i32(i32 %13, i32 0)
  %15 = tail call i32 @llvm.umin.i32(i32 %14, i32 8)
  %16 = zext nneg i32 %15 to i64
  br label %.preheader.us

.preheader.preheader:                             ; preds = %10
  %17 = shl nuw nsw i64 %indvar59, 9
  %scevgep = getelementptr i8, ptr %9, i64 %17
  tail call void @llvm.memset.p0.i64(ptr noundef nonnull align 2 dereferenceable(512) %scevgep, i8 0, i64 512, i1 false), !tbaa !58
  br label %.critedge41

.preheader.us:                                    ; preds = %.preheader.us.preheader, %19
  %indvars.iv56 = phi i64 [ 0, %.preheader.us.preheader ], [ %indvars.iv.next57, %19 ]
  %18 = trunc nuw nsw i64 %indvars.iv56 to i32
  br label %22

19:                                               ; preds = %._crit_edge.us
  %20 = trunc nsw i64 %33 to i16
  %21 = getelementptr inbounds nuw [16 x [256 x i16]], ptr %0, i64 %indvar, i64 %indvar59, i64 %indvars.iv56
  store i16 %20, ptr %21, align 2, !tbaa !58
  %indvars.iv.next57 = add nuw nsw i64 %indvars.iv56, 1
  %exitcond = icmp eq i64 %indvars.iv.next57, 256
  br i1 %exitcond, label %.critedge41, label %.preheader.us, !llvm.loop !69

22:                                               ; preds = %.preheader.us, %22
  %indvars.iv = phi i64 [ 0, %.preheader.us ], [ %indvars.iv.next, %22 ]
  %.03346.us = phi i64 [ 0, %.preheader.us ], [ %33, %22 ]
  %23 = trunc nuw nsw i64 %indvars.iv to i32
  %24 = lshr i32 %18, %23
  %25 = shl nuw nsw i32 %24, 1
  %26 = and i32 %25, 2
  %27 = add nsw i32 %26, -1
  %28 = add nuw nsw i64 %indvars.iv, %11
  %29 = getelementptr inbounds nuw [12 x [128 x i32]], ptr %4, i64 0, i64 %indvar, i64 %28
  %30 = load i32, ptr %29, align 4, !tbaa !50
  %31 = mul nsw i32 %30, %27
  %32 = sext i32 %31 to i64
  %33 = add nsw i64 %.03346.us, %32
  %indvars.iv.next = add nuw nsw i64 %indvars.iv, 1
  %34 = icmp samesign ult i64 %indvars.iv.next, %16
  br i1 %34, label %22, label %._crit_edge.us, !llvm.loop !70

._crit_edge.us:                                   ; preds = %22
  %35 = add i64 %33, 32768
  %.not.us = icmp ult i64 %35, 65536
  br i1 %.not.us, label %19, label %.critedge

.critedge41:                                      ; preds = %19, %.preheader.preheader
  %indvar.next60 = add nuw nsw i64 %indvar59, 1
  %exitcond65 = icmp eq i64 %indvar.next60, 16
  br i1 %exitcond65, label %.critedge43, label %10, !llvm.loop !71

.critedge43:                                      ; preds = %.critedge41
  %indvar.next = add nuw nsw i64 %indvar, 1
  %exitcond67.not = icmp eq i64 %indvar.next, %wide.trip.count
  br i1 %exitcond67.not, label %.critedge, label %.split48, !llvm.loop !72

.critedge:                                        ; preds = %.critedge43, %._crit_edge.us, %.split50
  %.6 = phi i32 [ 0, %.split50 ], [ -1094995529, %._crit_edge.us ], [ 0, %.critedge43 ]
  ret i32 %.6
}